Certificate:
    Data:
        Version: 3 (0x2)
        Serial Number: 3 (0x3)
        Signature Algorithm: sha1WithRSAEncryption
        Issuer: C=CA, ST=Ontario, L=Toronto, O=TME, CN=TME
        Validity
            Not Before: Nov 22 21:58:02 2010 GMT
            Not After : Nov 21 21:58:02 2012 GMT
        Subject: C=CA, ST=Ontario, O=TME, CN=192.168.1.100
        Subject Public Key Info:
            Public Key Algorithm: rsaEncryption
            RSA Public Key: (2048 bit)
                Modulus (2048 bit):
                    00:c5:77:e5:1d:20:22:04:5b:3b:41:07:e5:1a:3f:
                    3c:fc:b1:04:ab:6b:e0:b8:0c:b7:c8:b2:10:2c:32:
                    e0:50:d5:03:ea:54:c4:94:d7:f5:43:73:74:d8:44:
                    95:7c:da:06:97:31:a7:02:66:a3:cc:d1:d2:fb:e6:
                    e1:1b:24:4a:50:fc:7c:d1:84:ec:a8:b8:01:31:31:
                    27:86:81:e4:90:66:04:ab:b6:a8:9a:eb:e1:18:a4:
                    e8:dd:b9:a9:7e:4e:52:14:50:f8:c3:e4:d2:a2:72:
                    82:20:ba:d0:ab:8b:e3:9e:31:50:c7:c8:03:60:4d:
                    f2:70:4b:7a:0b:76:51:df:ed:5b:cd:bc:98:ad:3b:
                    e3:d6:f3:2a:d2:b3:31:82:ab:f3:12:d6:3c:91:a7:
                    54:d0:3a:36:5e:5f:28:f5:a9:2e:26:17:7e:f0:db:
                    9b:18:32:37:bc:c5:e5:05:0a:ae:ec:6e:39:7b:fc:
                    34:5d:74:7c:c7:52:9d:c0:3e:3f:7b:97:7a:b7:9f:
                    2d:e3:9f:11:63:39:e9:8b:5a:3b:b9:f2:bb:41:f0:
                    b8:48:a5:01:57:57:df:ad:a2:bc:13:59:ae:2a:d9:
                    ad:a9:0b:c3:38:79:8e:19:13:a7:be:eb:a4:f0:98:
                    a1:c1:00:1f:48:fd:55:04:59:78:b0:cb:dc:1b:49:
                    6f:a7
                Exponent: 65537 (0x10001)
        X509v3 extensions:
            X509v3 Basic Constraints: 
                CA:FALSE
            X509v3 Subject Key Identifier: 
                13:8F:86:78:0C:B3:B7:8E:A8:2A:E5:DF:49:4B:5F:8F:51:09:08:4F
            X509v3 Authority Key Identifier: 
                keyid:06:20:44:1B:42:C3:51:23:EB:84:90:BF:DD:51:2F:DF:85:C7:76:7A

    Signature Algorithm: sha1WithRSAEncryption
        65:f9:1b:96:05:76:0f:a6:4d:cb:a0:02:3b:fe:ee:17:d9:55:
        0c:06:0f:af:d1:bd:6a:30:d3:1c:24:60:0a:91:33:fa:9c:56:
        40:5a:ba:09:71:e9:ef:04:6c:31:32:f7:b9:34:f1:cb:cc:42:
        2e:f1:d0:6b:b0:ff:d0:c7:0b:73:c6:19:fd:15:eb:f1:4d:00:
        b5:6f:92:38:b7:5b:75:5a:38:e9:86:9e:e8:e1:f0:5f:34:77:
        43:d8:11:ae:8d:c7:07:6d:ed:a7:ff:fc:71:a7:5b:0a:4b:c9:
        05:ba:b6:53:ef:66:18:4b:9f:8b:48:23:06:da:78:d4:8b:04:
        05:c5:d9:65:50:fd:84:4c:87:41:77:2e:3e:c2:3d:41:f0:65:
        7c:00:7e:ad:f3:a4:43:3c:b7:a4:af:73:dc:dc:6e:22:e6:65:
        c3:95:15:d9:88:eb:fb:98:0c:52:27:a9:42:89:ef:a6:99:9f:
        7f:ae:c9:e6:be:e4:61:7b:87:3f:e0:fb:5f:51:c2:4c:7b:fb:
        f2:50:99:86:bb:18:74:74:3e:69:5b:0d:7e:38:e4:ef:9f:52:
        df:61:22:b4:df:4b:77:f4:ed:90:1b:af:7e:6d:46:00:9c:d0:
        ea:94:02:44:b1:27:73:f3:05:51:35:72:a4:aa:a7:16:c6:fe:
        9d:cb:a8:57
-----BEGIN CERTIFICATE-----
MIIDWjCCAkKgAwIBAgIBAzANBgkqhkiG9w0BAQUFADBNMQswCQYDVQQGEwJDQTEQ
MA4GA1UECBMHT250YXJpbzEQMA4GA1UEBxMHVG9yb250bzEMMAoGA1UEChMDVE1F
MQwwCgYDVQQDEwNUTUUwHhcNMTAxMTIyMjE1ODAyWhcNMTIxMTIxMjE1ODAyWjBF
MQswCQYDVQQGEwJDQTEQMA4GA1UECBMHT250YXJpbzEMMAoGA1UEChMDVE1FMRYw
FAYDVQQDEw0xOTIuMTY4LjEuMTAwMIIBIjANBgkqhkiG9w0BAQEFAAOCAQ8AMIIB
CgKCAQEAxXflHSAiBFs7QQflGj88/LEEq2vguAy3yLIQLDLgUNUD6lTElNf1Q3N0
2ESVfNoGlzGnAmajzNHS++bhGyRKUPx80YTsqLgBMTEnhoHkkGYEq7aomuvhGKTo
3bmpfk5SFFD4w+TSonKCILrQq4vjnjFQx8gDYE3ycEt6C3ZR3+1bzbyYrTvj1vMq
0rMxgqvzEtY8kadU0Do2Xl8o9akuJhd+8NubGDI3vMXlBQqu7G45e/w0XXR8x1Kd
wD4/e5d6t58t458RYznpi1o7ufK7QfC4SKUBV1ffraK8E1muKtmtqQvDOHmOGROn
vuuk8JihwQAfSP1VBFl4sMvcG0lvpwIDAQABo00wSzAJBgNVHRMEAjAAMB0GA1Ud
DgQWBBQTj4Z4DLO3jqgq5d9JS1+PUQkITzAfBgNVHSMEGDAWgBQGIEQbQsNRI+uE
kL/dUS/fhcd2ejANBgkqhkiG9w0BAQUFAAOCAQEAZfkblgV2D6ZNy6ACO/7uF9lV
DAYPr9G9ajDTHCRgCpEz+pxWQFq6CXHp7wRsMTL3uTTxy8xCLvHQa7D/0McLc8YZ
/RXr8U0AtW+SOLdbdVo46Yae6OHwXzR3Q9gRro3HB23tp//8cadbCkvJBbq2U+9m
GEufi0gjBtp41IsEBcXZZVD9hEyHQXcuPsI9QfBlfAB+rfOkQzy3pK9z3NxuIuZl
w5UV2Yjr+5gMUiepQonvppmff67J5r7kYXuHP+D7X1HCTHv78lCZhrsYdHQ+aVsN
fjjk759S32EitN9Ld/TtkBuvfm1GAJzQ6pQCRLEnc/MFUTVypKqnFsb+ncuoVw==
-----END CERTIFICATE-----
