Certificate:
    Data:
        Version: 3 (0x2)
        Serial Number: 0 (0x0)
        Signature Algorithm: sha1WithRSAEncryption
        Issuer: C=CA, ST=Ontario, L=Toronto, O=TME, CN=TME
        Validity
            Not Before: Nov 22 21:39:21 2010 GMT
            Not After : Nov 22 21:39:21 2020 GMT
        Subject: C=CA, ST=Ontario, L=Toronto, O=TME, CN=TME
        Subject Public Key Info:
            Public Key Algorithm: rsaEncryption
            RSA Public Key: (2048 bit)
                Modulus (2048 bit):
                    00:ab:51:23:a7:60:2c:ee:fd:60:8a:20:58:fd:c4:
                    86:57:e7:bc:5a:a4:92:84:f3:1e:42:22:2b:3d:64:
                    db:ab:29:25:60:29:31:6b:76:58:e8:d5:62:be:ba:
                    0d:c0:98:2d:28:e2:e7:40:c3:b8:13:78:4c:7f:bb:
                    76:4e:fb:91:e5:36:94:78:cd:61:0b:fb:ff:4f:1a:
                    bc:e3:3e:a6:86:21:7b:e5:f3:63:f8:a9:c2:84:e4:
                    c8:32:9d:15:cb:05:31:43:bd:df:0a:d3:8d:5e:08:
                    38:fe:2a:99:61:2b:77:19:25:09:d9:0f:0f:64:7c:
                    60:a4:b1:9e:21:e6:34:be:8b:ad:f3:d3:7c:ff:a8:
                    6d:11:d1:c0:9d:04:2a:3d:fa:72:79:95:3b:75:a9:
                    36:03:f0:6c:dd:a6:c9:d1:95:f3:aa:06:d5:d1:b2:
                    4c:ba:ea:d4:01:a7:7e:f5:89:32:d2:35:92:f2:db:
                    b4:5e:d6:73:2d:b1:5a:ae:67:2b:7e:f6:78:24:99:
                    25:d5:b6:67:fc:2d:d5:fc:17:05:7b:2e:56:5c:30:
                    84:a0:3b:13:7e:0c:5c:fd:8e:f8:c9:ce:08:c9:db:
                    ac:97:4c:68:eb:eb:db:7a:5f:05:c4:ac:d2:53:bd:
                    b8:8a:7d:c8:de:82:1e:15:7f:0b:91:df:d2:7f:dc:
                    82:1f
                Exponent: 65537 (0x10001)
        X509v3 extensions:
            X509v3 Basic Constraints: 
                CA:TRUE
            X509v3 Subject Key Identifier: 
                06:20:44:1B:42:C3:51:23:EB:84:90:BF:DD:51:2F:DF:85:C7:76:7A
            X509v3 Authority Key Identifier: 
                keyid:06:20:44:1B:42:C3:51:23:EB:84:90:BF:DD:51:2F:DF:85:C7:76:7A
                DirName:/C=CA/ST=Ontario/L=Toronto/O=TME/CN=TME
                serial:00

    Signature Algorithm: sha1WithRSAEncryption
        a9:c9:dd:1f:a4:5f:49:90:62:a2:e9:67:ba:2f:17:fa:db:0a:
        3a:71:22:b4:98:b0:40:6b:6f:1b:fb:99:26:0b:db:7e:d5:89:
        ee:03:e7:4a:ad:79:54:1d:5b:c5:80:de:95:97:d1:fc:87:79:
        aa:69:1c:fa:53:0c:8b:88:35:18:64:88:4a:3c:b1:68:39:18:
        5b:fc:d0:4a:be:21:9d:cc:88:d6:3a:7d:67:88:96:27:a1:86:
        b9:82:eb:f8:22:93:06:41:2a:9e:6c:20:92:50:06:e7:45:6f:
        61:e7:c0:8e:17:7c:06:9c:73:00:b3:37:da:e3:de:97:70:86:
        29:4f:23:61:bc:ad:81:54:22:e3:ce:c9:03:e7:fa:08:45:1d:
        5c:90:44:71:6a:94:1c:96:9e:d2:06:2e:87:1a:f9:a1:6d:59:
        22:ba:35:de:96:32:bb:f4:75:3b:aa:0c:1f:90:8a:d6:4c:0d:
        8b:10:49:b3:5c:2c:26:a0:14:d1:09:f3:c7:e5:b9:e2:8f:9f:
        a9:b5:75:be:2a:de:f4:61:70:6c:3a:c6:1b:67:1a:b5:34:bd:
        c4:bf:8c:35:73:3a:70:58:34:44:30:a1:46:b6:ef:77:81:64:
        0c:80:d7:66:93:74:92:fa:a5:3d:4a:32:1f:fb:ab:6e:71:8f:
        d0:40:ec:13
-----BEGIN CERTIFICATE-----
MIIDvTCCAqWgAwIBAgIBADANBgkqhkiG9w0BAQUFADBNMQswCQYDVQQGEwJDQTEQ
MA4GA1UECBMHT250YXJpbzEQMA4GA1UEBxMHVG9yb250bzEMMAoGA1UEChMDVE1F
MQwwCgYDVQQDEwNUTUUwHhcNMTAxMTIyMjEzOTIxWhcNMjAxMTIyMjEzOTIxWjBN
MQswCQYDVQQGEwJDQTEQMA4GA1UECBMHT250YXJpbzEQMA4GA1UEBxMHVG9yb250
bzEMMAoGA1UEChMDVE1FMQwwCgYDVQQDEwNUTUUwggEiMA0GCSqGSIb3DQEBAQUA
A4IBDwAwggEKAoIBAQCrUSOnYCzu/WCKIFj9xIZX57xapJKE8x5CIis9ZNurKSVg
KTFrdljo1WK+ug3AmC0o4udAw7gTeEx/u3ZO+5HlNpR4zWEL+/9PGrzjPqaGIXvl
82P4qcKE5MgynRXLBTFDvd8K041eCDj+KplhK3cZJQnZDw9kfGCksZ4h5jS+i63z
03z/qG0R0cCdBCo9+nJ5lTt1qTYD8GzdpsnRlfOqBtXRsky66tQBp371iTLSNZLy
27Re1nMtsVquZyt+9ngkmSXVtmf8LdX8FwV7LlZcMISgOxN+DFz9jvjJzgjJ26yX
TGjr69t6XwXErNJTvbiKfcjegh4VfwuR39J/3IIfAgMBAAGjgacwgaQwDAYDVR0T
BAUwAwEB/zAdBgNVHQ4EFgQUBiBEG0LDUSPrhJC/3VEv34XHdnowdQYDVR0jBG4w
bIAUBiBEG0LDUSPrhJC/3VEv34XHdnqhUaRPME0xCzAJBgNVBAYTAkNBMRAwDgYD
VQQIEwdPbnRhcmlvMRAwDgYDVQQHEwdUb3JvbnRvMQwwCgYDVQQKEwNUTUUxDDAK
BgNVBAMTA1RNRYIBADANBgkqhkiG9w0BAQUFAAOCAQEAqcndH6RfSZBioulnui8X
+tsKOnEitJiwQGtvG/uZJgvbftWJ7gPnSq15VB1bxYDelZfR/Id5qmkc+lMMi4g1
GGSISjyxaDkYW/zQSr4hncyI1jp9Z4iWJ6GGuYLr+CKTBkEqnmwgklAG50VvYefA
jhd8BpxzALM32uPel3CGKU8jYbytgVQi487JA+f6CEUdXJBEcWqUHJae0gYuhxr5
oW1ZIro13pYyu/R1O6oMH5CK1kwNixBJs1wsJqAU0Qnzx+W54o+fqbV1vire9GFw
bDrGG2catTS9xL+MNXM6cFg0RDChRrbvd4FkDIDXZpN0kvqlPUoyH/urbnGP0EDs
Ew==
-----END CERTIFICATE-----
